; Function Attrs: mustprogress nofree norecurse nosync nounwind willreturn memory(read, inaccessiblemem: none) uwtable
define dso_local noundef zeroext i1 @_ZNK5clang9BlockDecl16capturesVariableEPKNS_7VarDeclE(ptr nocapture noundef nonnull readonly align 8 dereferenceable(128) %0, ptr noundef readnone %1) local_unnamed_addr #9 align 2 {
  %3 = getelementptr inbounds nuw i8, ptr %0, i64 104
  %4 = load ptr, ptr %3, align 8
  %5 = getelementptr inbounds nuw i8, ptr %0, i64 112
  %6 = load i32, ptr %5, align 8
  %7 = zext i32 %6 to i64
  %8 = getelementptr inbounds %"class.clang::BlockDecl::Capture", ptr %4, i64 %7
  %.not12.not = icmp eq i32 %6, 0
  br i1 %.not12.not, label %._crit_edge, label %.lr.ph

.lr.ph:                                           ; preds = %2, %.lr.ph
  %.01013 = phi ptr [ %12, %.lr.ph ], [ %4, %2 ]
  %.0.copyload.i.i.i.i = load i64, ptr %.01013, align 8
  %9 = and i64 %.0.copyload.i.i.i.i, -8
  %10 = inttoptr i64 %9 to ptr
  %11 = icmp eq ptr %1, %10
  %12 = getelementptr inbounds i8, ptr %.01013, i64 16
  %.not.not = icmp eq ptr %12, %8
  %or.cond = select i1 %11, i1 true, i1 %.not.not
  br i1 %or.cond, label %._crit_edge, label %.lr.ph

._crit_edge:                                      ; preds = %.lr.ph, %2
  %.not.lcssa = phi i1 [ false, %2 ], [ %11, %.lr.ph ]
  ret i1 %.not.lcssa
}